Certificate:
    Data:
        Version: 3 (0x2)
        Serial Number: 9690128060255175790 (0x867a40215b8e046e)
    Signature Algorithm: sha1WithRSAEncryption
        Issuer: C=CN, ST=Fujian, O=Huanleguang Co,. Ltd., OU=Security Division, CN=CA/emailAddress=dulong@huanleguang.com
        Validity
            Not Before: Jun 15 08:55:18 2014 GMT
            Not After : Jun 12 08:55:18 2024 GMT
        Subject: C=CN, ST=Fujian, O=Huanleguang Co,. Ltd., OU=Security Division, CN=CA/emailAddress=dulong@huanleguang.com
        Subject Public Key Info:
            Public Key Algorithm: rsaEncryption
                Public-Key: (2048 bit)
                Modulus:
                    00:ad:f2:fb:b1:3d:ad:cf:d3:17:5c:1b:7e:92:d3:
                    08:74:64:62:c7:d4:a8:1a:38:47:07:ec:f1:14:03:
                    a7:e1:fc:31:81:10:77:a4:94:b8:a0:98:25:b0:07:
                    47:f5:a9:5e:f0:bd:49:d2:33:2f:f6:73:c5:7f:07:
                    af:0b:74:f4:05:02:e2:3d:b1:45:6e:0f:94:26:90:
                    4b:7c:de:cd:6e:31:e3:f0:98:04:09:91:00:d3:95:
                    94:e8:f1:b7:2f:8e:de:10:79:af:75:51:dc:46:41:
                    95:58:cf:d6:16:6b:aa:65:d3:08:7f:1f:26:bc:ae:
                    6c:e9:ad:bc:f7:42:26:8d:bf:c5:7c:16:1c:a2:c1:
                    f2:ab:76:c0:f3:c2:32:f9:2c:e5:09:d6:01:56:1d:
                    64:22:c4:f3:00:c5:6c:cb:4d:b3:b3:ba:ef:b1:41:
                    e3:45:4d:a5:48:a0:7f:de:4a:fa:92:16:4c:3f:95:
                    15:d4:b4:cb:63:f2:45:cf:d3:1d:45:38:ef:5e:f9:
                    61:8a:83:60:da:f6:60:9e:6b:7b:a7:9b:bd:86:81:
                    b2:f4:28:a3:31:a8:48:f4:6f:11:e7:3b:4f:f2:da:
                    6d:ff:28:1d:c3:2a:d9:19:db:c5:16:1c:93:d1:ea:
                    40:a6:8c:33:76:1b:1e:b1:cd:57:38:28:70:b1:a1:
                    2a:73
                Exponent: 65537 (0x10001)
        X509v3 extensions:
            X509v3 Subject Key Identifier: 
                42:8D:5A:E9:4C:0D:45:A9:5D:21:3E:44:DF:21:43:73:7D:A3:CB:EA
            X509v3 Authority Key Identifier: 
                keyid:42:8D:5A:E9:4C:0D:45:A9:5D:21:3E:44:DF:21:43:73:7D:A3:CB:EA

            X509v3 Basic Constraints: 
                CA:TRUE
    Signature Algorithm: sha1WithRSAEncryption
         03:c4:b0:fc:18:c1:2f:df:8b:b8:5c:0e:0c:a7:21:a2:a7:e6:
         7d:3e:56:5c:02:40:22:44:76:e6:45:6d:63:5a:40:af:05:f1:
         4b:8e:f9:c6:92:3c:03:a8:a7:df:7f:1e:e5:c5:34:4e:b1:b8:
         74:bd:fd:bb:ad:63:fc:96:5e:62:75:db:1a:1d:e8:9b:cb:f1:
         1e:6d:fe:a0:6d:10:cb:d0:fa:34:53:3f:cd:5e:60:08:eb:96:
         f4:9c:cd:c8:00:d7:f6:9b:98:01:ab:c0:f8:68:45:41:c1:2c:
         02:5b:52:95:3c:26:d4:a2:40:76:d3:3a:90:2a:56:b2:ca:85:
         35:aa:20:9a:56:da:07:4c:e3:e8:16:c9:4e:43:ae:e2:8d:30:
         a9:14:37:c9:70:11:f9:af:fc:96:e4:41:2d:33:f5:6d:3d:89:
         e6:ca:4c:6a:36:86:d9:5c:93:81:f2:83:17:02:26:76:ff:f0:
         6e:fe:27:44:a7:a3:c1:5d:44:b3:1b:cc:64:77:d8:94:04:a3:
         c7:1f:b2:af:41:3b:09:9c:59:d0:f3:49:68:34:9f:68:b8:51:
         9c:b4:88:59:58:36:c7:7a:2f:ca:51:ad:53:6c:58:ef:f3:c6:
         25:30:45:19:6c:55:c5:e2:aa:59:94:2d:d4:c5:3e:ce:cb:34:
         c7:26:aa:91
-----BEGIN CERTIFICATE-----
MIID8TCCAtmgAwIBAgIJAIZ6QCFbjgRuMA0GCSqGSIb3DQEBBQUAMIGOMQswCQYD
VQQGEwJDTjEPMA0GA1UECAwGRnVqaWFuMR4wHAYDVQQKDBVIdWFubGVndWFuZyBD
bywuIEx0ZC4xGjAYBgNVBAsMEVNlY3VyaXR5IERpdmlzaW9uMQswCQYDVQQDDAJD
QTElMCMGCSqGSIb3DQEJARYWZHVsb25nQGh1YW5sZWd1YW5nLmNvbTAeFw0xNDA2
MTUwODU1MThaFw0yNDA2MTIwODU1MThaMIGOMQswCQYDVQQGEwJDTjEPMA0GA1UE
CAwGRnVqaWFuMR4wHAYDVQQKDBVIdWFubGVndWFuZyBDbywuIEx0ZC4xGjAYBgNV
BAsMEVNlY3VyaXR5IERpdmlzaW9uMQswCQYDVQQDDAJDQTElMCMGCSqGSIb3DQEJ
ARYWZHVsb25nQGh1YW5sZWd1YW5nLmNvbTCCASIwDQYJKoZIhvcNAQEBBQADggEP
ADCCAQoCggEBAK3y+7E9rc/TF1wbfpLTCHRkYsfUqBo4Rwfs8RQDp+H8MYEQd6SU
uKCYJbAHR/WpXvC9SdIzL/ZzxX8Hrwt09AUC4j2xRW4PlCaQS3zezW4x4/CYBAmR
ANOVlOjxty+O3hB5r3VR3EZBlVjP1hZrqmXTCH8fJryubOmtvPdCJo2/xXwWHKLB
8qt2wPPCMvks5QnWAVYdZCLE8wDFbMtNs7O677FB40VNpUigf95K+pIWTD+VFdS0
y2PyRc/THUU47175YYqDYNr2YJ5re6ebvYaBsvQoozGoSPRvEec7T/Labf8oHcMq
2RnbxRYck9HqQKaMM3YbHrHNVzgocLGhKnMCAwEAAaNQME4wHQYDVR0OBBYEFEKN
WulMDUWpXSE+RN8hQ3N9o8vqMB8GA1UdIwQYMBaAFEKNWulMDUWpXSE+RN8hQ3N9
o8vqMAwGA1UdEwQFMAMBAf8wDQYJKoZIhvcNAQEFBQADggEBAAPEsPwYwS/fi7hc
DgynIaKn5n0+VlwCQCJEduZFbWNaQK8F8UuO+caSPAOop99/HuXFNE6xuHS9/but
Y/yWXmJ12xod6JvL8R5t/qBtEMvQ+jRTP81eYAjrlvSczcgA1/abmAGrwPhoRUHB
LAJbUpU8JtSiQHbTOpAqVrLKhTWqIJpW2gdM4+gWyU5DruKNMKkUN8lwEfmv/Jbk
QS0z9W09iebKTGo2htlck4HygxcCJnb/8G7+J0Sno8FdRLMbzGR32JQEo8cfsq9B
OwmcWdDzSWg0n2i4UZy0iFlYNsd6L8pRrVNsWO/zxiUwRRlsVcXiqlmULdTFPs7L
NMcmqpE=
-----END CERTIFICATE-----
