Certificate:
    Data:
        Version: 3 (0x2)
        Serial Number: 9690128060255175791 (0x867a40215b8e046f)
    Signature Algorithm: sha1WithRSAEncryption
        Issuer: C=CN, ST=Fujian, O=Huanleguang Co,. Ltd., OU=Security Division, CN=CA/emailAddress=dulong@huanleguang.com
        Validity
            Not Before: Jun 15 09:00:01 2014 GMT
            Not After : Jun 12 09:00:01 2024 GMT
        Subject: C=CN, ST=Fujian, O=Huanleguang Co,. Ltd., OU=Security Division, CN=server/emailAddress=dulong@huanleguang.com
        Subject Public Key Info:
            Public Key Algorithm: rsaEncryption
                Public-Key: (2048 bit)
                Modulus:
                    00:cc:4c:5d:9f:e7:20:23:35:a1:6e:23:9c:f3:b3:
                    63:1e:6f:39:e9:7f:16:c5:c6:67:01:a4:64:63:cc:
                    b7:ce:dd:32:ec:3d:b4:ab:67:28:80:86:0e:6e:94:
                    a5:8a:57:32:4c:0c:4b:8b:83:07:e2:bf:48:f0:bf:
                    e8:04:3e:fd:a7:ee:0c:5e:9f:b3:d6:13:6b:40:9e:
                    67:97:be:19:2d:e7:4b:be:48:45:75:eb:c3:1c:97:
                    25:61:d1:48:66:07:d1:7e:4b:ee:30:84:55:aa:bb:
                    eb:a1:78:c7:0c:70:44:e9:6c:82:85:41:06:03:ae:
                    4a:25:c8:65:d6:c6:ff:50:4e:3d:73:b0:38:43:93:
                    6d:53:de:a9:ac:4a:d5:6a:7a:ad:c6:8a:80:97:fc:
                    0d:d6:21:6e:3f:31:26:2a:ba:85:81:6b:31:08:a6:
                    fb:5d:dd:84:e4:d9:29:2a:3c:39:13:b4:ca:0b:3a:
                    ff:5b:8d:17:61:76:6c:1a:9d:51:72:2b:6d:e8:bf:
                    2e:94:0e:35:04:c7:e3:fb:3b:3f:56:19:ec:6e:78:
                    1b:80:26:9a:e3:a1:c1:72:a6:18:cd:95:46:b3:60:
                    1a:0b:43:3d:5e:9a:59:d4:9f:fe:c1:d4:08:0e:1e:
                    5f:70:f5:7e:fb:16:60:7e:44:c0:3c:97:26:81:f7:
                    85:d1
                Exponent: 65537 (0x10001)
        X509v3 extensions:
            X509v3 Basic Constraints: 
                CA:FALSE
            Netscape Comment: 
                OpenSSL Generated Certificate
            X509v3 Subject Key Identifier: 
                08:FD:1F:55:95:F6:01:B8:5D:9D:B9:1C:1B:0D:8A:E2:47:04:4A:06
            X509v3 Authority Key Identifier: 
                keyid:42:8D:5A:E9:4C:0D:45:A9:5D:21:3E:44:DF:21:43:73:7D:A3:CB:EA

    Signature Algorithm: sha1WithRSAEncryption
         6c:0d:3d:01:85:b1:9f:21:7d:54:a2:c8:85:37:28:ca:a5:09:
         4d:11:0b:b0:d7:ee:52:a8:0c:d2:16:27:e3:37:db:e4:8c:cb:
         96:98:38:11:f6:42:6c:eb:6b:9d:02:42:eb:01:d4:2d:4f:8a:
         02:a2:e8:e3:01:c4:e0:1d:d9:e9:b1:0d:15:d2:cc:ff:28:da:
         3f:bc:31:13:3c:56:02:85:f0:fd:0d:c9:89:71:20:a2:98:99:
         ae:f4:9f:10:c3:ad:86:48:a9:16:e2:b8:4f:a9:53:c5:99:73:
         4d:14:e7:98:ad:37:2c:88:cc:63:a9:00:8f:5d:b3:28:14:a0:
         cd:77:ba:d6:fa:7c:49:3c:d4:f5:a3:44:8a:07:b8:99:72:68:
         50:55:89:18:11:7b:57:98:a1:46:55:79:4e:e2:c5:ed:ef:b6:
         d7:ac:45:45:fc:69:f8:66:47:6a:8b:38:5d:22:21:0b:74:c2:
         a5:7c:b8:06:27:d2:ac:e4:43:cd:7b:58:3c:9d:b5:b0:e2:1e:
         b7:dd:56:26:1c:f7:cd:64:a0:85:07:d4:bb:cf:26:ea:95:c7:
         2c:c2:e2:d8:f4:67:94:96:47:33:92:ab:b2:48:70:45:b7:62:
         7f:0a:1b:20:08:da:3d:17:6d:5b:26:8c:00:40:89:92:66:73:
         36:10:5a:84
-----BEGIN CERTIFICATE-----
MIIEIDCCAwigAwIBAgIJAIZ6QCFbjgRvMA0GCSqGSIb3DQEBBQUAMIGOMQswCQYD
VQQGEwJDTjEPMA0GA1UECAwGRnVqaWFuMR4wHAYDVQQKDBVIdWFubGVndWFuZyBD
bywuIEx0ZC4xGjAYBgNVBAsMEVNlY3VyaXR5IERpdmlzaW9uMQswCQYDVQQDDAJD
QTElMCMGCSqGSIb3DQEJARYWZHVsb25nQGh1YW5sZWd1YW5nLmNvbTAeFw0xNDA2
MTUwOTAwMDFaFw0yNDA2MTIwOTAwMDFaMIGSMQswCQYDVQQGEwJDTjEPMA0GA1UE
CAwGRnVqaWFuMR4wHAYDVQQKDBVIdWFubGVndWFuZyBDbywuIEx0ZC4xGjAYBgNV
BAsMEVNlY3VyaXR5IERpdmlzaW9uMQ8wDQYDVQQDDAZzZXJ2ZXIxJTAjBgkqhkiG
9w0BCQEWFmR1bG9uZ0BodWFubGVndWFuZy5jb20wggEiMA0GCSqGSIb3DQEBAQUA
A4IBDwAwggEKAoIBAQDMTF2f5yAjNaFuI5zzs2MebznpfxbFxmcBpGRjzLfO3TLs
PbSrZyiAhg5ulKWKVzJMDEuLgwfiv0jwv+gEPv2n7gxen7PWE2tAnmeXvhkt50u+
SEV168MclyVh0UhmB9F+S+4whFWqu+uheMcMcETpbIKFQQYDrkolyGXWxv9QTj1z
sDhDk21T3qmsStVqeq3GioCX/A3WIW4/MSYquoWBazEIpvtd3YTk2SkqPDkTtMoL
Ov9bjRdhdmwanVFyK23ovy6UDjUEx+P7Oz9WGexueBuAJprjocFyphjNlUazYBoL
Qz1emlnUn/7B1AgOHl9w9X77FmB+RMA8lyaB94XRAgMBAAGjezB5MAkGA1UdEwQC
MAAwLAYJYIZIAYb4QgENBB8WHU9wZW5TU0wgR2VuZXJhdGVkIENlcnRpZmljYXRl
MB0GA1UdDgQWBBQI/R9VlfYBuF2duRwbDYriRwRKBjAfBgNVHSMEGDAWgBRCjVrp
TA1FqV0hPkTfIUNzfaPL6jANBgkqhkiG9w0BAQUFAAOCAQEAbA09AYWxnyF9VKLI
hTcoyqUJTRELsNfuUqgM0hYn4zfb5IzLlpg4EfZCbOtrnQJC6wHULU+KAqLo4wHE
4B3Z6bENFdLM/yjaP7wxEzxWAoXw/Q3JiXEgopiZrvSfEMOthkipFuK4T6lTxZlz
TRTnmK03LIjMY6kAj12zKBSgzXe61vp8STzU9aNEige4mXJoUFWJGBF7V5ihRlV5
TuLF7e+216xFRfxp+GZHaos4XSIhC3TCpXy4BifSrORDzXtYPJ21sOIet91WJhz3
zWSghQfUu88m6pXHLMLi2PRnlJZHM5KrskhwRbdifwobIAjaPRdtWyaMAECJkmZz
NhBahA==
-----END CERTIFICATE-----
