Certificate:
    Data:
        Version: 3 (0x2)
        Serial Number: 1 (0x1)
    Signature Algorithm: sha1WithRSAEncryption
        Issuer: C=FR, ST=Radius, L=Somewhere, O=Example Inc./emailAddress=admin@example.com, CN=Example Certificate Authority
        Validity
            Not Before: Mar  7 17:39:45 2014 GMT
            Not After : May  6 17:39:45 2014 GMT
        Subject: C=FR, ST=Radius, O=Example Inc., CN=Example Server Certificate/emailAddress=admin@example.com
        Subject Public Key Info:
            Public Key Algorithm: rsaEncryption
                Public-Key: (2048 bit)
                Modulus:
                    00:c0:e0:8f:90:75:4a:36:67:f9:59:46:c1:be:17:
                    0a:d7:ad:b5:2d:f1:95:73:89:29:cf:4d:7b:77:f8:
                    ab:64:7a:6e:22:3f:fb:74:d9:9d:16:cc:9c:84:9f:
                    d5:46:a1:5e:a4:1b:20:4e:35:ce:81:2f:7f:0b:0c:
                    2f:e1:9c:ec:57:cd:8d:f5:9b:01:cd:c2:78:2a:66:
                    2d:dd:e3:7b:6b:cc:6c:7d:02:07:af:72:94:ef:bc:
                    a4:78:b8:1a:8f:e3:ba:62:b4:7a:2a:de:46:6f:bf:
                    1f:6b:eb:56:26:ac:31:ef:bf:84:b5:d6:dc:67:97:
                    c8:06:f4:ce:23:f4:0f:c2:2e:28:88:81:bd:35:a0:
                    5e:6e:83:be:49:35:7a:29:f9:69:53:76:58:56:22:
                    6e:eb:6b:d1:63:a0:79:04:5c:ec:c4:c5:5e:81:ee:
                    bb:9e:8b:09:fe:2c:ab:0c:05:01:1f:40:dd:c4:e3:
                    16:58:11:f4:5d:39:bf:c7:68:8b:ca:f6:e2:24:11:
                    13:3b:08:cf:58:ee:dc:c5:f4:a2:16:14:27:7d:5f:
                    70:92:04:e4:14:72:d3:44:41:d7:4a:b3:f9:2d:4b:
                    63:c3:19:aa:e4:37:b4:10:06:9c:21:d4:58:53:6e:
                    99:19:d2:7f:e8:d2:2c:05:51:84:87:93:9c:8f:52:
                    24:1b
                Exponent: 65537 (0x10001)
        X509v3 extensions:
            X509v3 Extended Key Usage: 
                TLS Web Server Authentication
    Signature Algorithm: sha1WithRSAEncryption
         aa:bd:32:9a:08:f6:c3:28:f2:9c:c4:1a:9b:8a:dd:ac:1c:0a:
         17:51:1d:02:57:3c:0b:a4:44:04:27:51:ca:54:4c:ec:df:06:
         a3:52:26:45:f7:b3:c7:ae:58:0c:33:d8:04:5c:ed:7d:15:0f:
         cf:da:73:1a:f2:84:24:12:a8:b3:e2:f2:32:1d:29:7e:42:49:
         95:d1:90:fd:6b:1e:11:c6:cc:05:cb:9b:b3:e0:00:b8:94:a5:
         11:93:bb:1c:46:0a:5e:93:96:e8:10:c3:0c:15:66:ef:b0:18:
         ae:04:38:f0:b0:3c:73:fc:1f:34:d3:14:8a:4a:e2:42:38:c7:
         b2:59:fe:87:7c:02:ab:47:ee:9d:59:86:b6:e4:55:f4:07:9e:
         36:2c:e9:1e:d3:07:27:76:d5:a2:79:a2:a0:bb:a2:0b:39:48:
         16:b2:98:df:ba:13:49:34:a8:a0:70:ca:1d:15:cd:fc:3c:2b:
         a7:c3:35:8e:da:f0:fe:27:7a:cd:5c:54:d7:49:34:69:5b:61:
         6b:07:b6:37:3f:21:74:85:12:2b:5b:af:cd:04:53:c0:6a:7e:
         74:01:6f:07:55:9e:13:43:dc:3e:b1:1b:cc:2a:b5:33:5f:64:
         56:50:2f:58:e1:93:87:7c:ff:d1:d5:96:85:1f:04:54:48:6c:
         1a:6b:4e:9d
-----BEGIN CERTIFICATE-----
MIIDojCCAoqgAwIBAgIBATANBgkqhkiG9w0BAQUFADCBkzELMAkGA1UEBhMCRlIx
DzANBgNVBAgTBlJhZGl1czESMBAGA1UEBxMJU29tZXdoZXJlMRUwEwYDVQQKEwxF
eGFtcGxlIEluYy4xIDAeBgkqhkiG9w0BCQEWEWFkbWluQGV4YW1wbGUuY29tMSYw
JAYDVQQDEx1FeGFtcGxlIENlcnRpZmljYXRlIEF1dGhvcml0eTAeFw0xNDAzMDcx
NzM5NDVaFw0xNDA1MDYxNzM5NDVaMHwxCzAJBgNVBAYTAkZSMQ8wDQYDVQQIEwZS
YWRpdXMxFTATBgNVBAoTDEV4YW1wbGUgSW5jLjEjMCEGA1UEAxMaRXhhbXBsZSBT
ZXJ2ZXIgQ2VydGlmaWNhdGUxIDAeBgkqhkiG9w0BCQEWEWFkbWluQGV4YW1wbGUu
Y29tMIIBIjANBgkqhkiG9w0BAQEFAAOCAQ8AMIIBCgKCAQEAwOCPkHVKNmf5WUbB
vhcK1621LfGVc4kpz017d/irZHpuIj/7dNmdFsychJ/VRqFepBsgTjXOgS9/Cwwv
4ZzsV82N9ZsBzcJ4KmYt3eN7a8xsfQIHr3KU77ykeLgaj+O6YrR6Kt5Gb78fa+tW
Jqwx77+EtdbcZ5fIBvTOI/QPwi4oiIG9NaBeboO+STV6KflpU3ZYViJu62vRY6B5
BFzsxMVege67nosJ/iyrDAUBH0DdxOMWWBH0XTm/x2iLyvbiJBETOwjPWO7cxfSi
FhQnfV9wkgTkFHLTREHXSrP5LUtjwxmq5De0EAacIdRYU26ZGdJ/6NIsBVGEh5Oc
j1IkGwIDAQABoxcwFTATBgNVHSUEDDAKBggrBgEFBQcDATANBgkqhkiG9w0BAQUF
AAOCAQEAqr0ymgj2wyjynMQam4rdrBwKF1EdAlc8C6REBCdRylRM7N8Go1ImRfez
x65YDDPYBFztfRUPz9pzGvKEJBKos+LyMh0pfkJJldGQ/WseEcbMBcubs+AAuJSl
EZO7HEYKXpOW6BDDDBVm77AYrgQ48LA8c/wfNNMUikriQjjHsln+h3wCq0funVmG
tuRV9AeeNizpHtMHJ3bVonmioLuiCzlIFrKY37oTSTSooHDKHRXN/Dwrp8M1jtrw
/id6zVxU10k0aVthawe2Nz8hdIUSK1uvzQRTwGp+dAFvB1WeE0PcPrEbzCq1M19k
VlAvWOGTh3z/0dWWhR8EVEhsGmtOnQ==
-----END CERTIFICATE-----
